; Function Attrs: mustprogress nounwind uwtable
define hidden noundef i64 @_ZN14ArchiveBuilder21estimate_archive_sizeEv(ptr nocapture noundef nonnull align 8 dereferenceable(1080) %0) local_unnamed_addr #1 align 2 {
  %2 = tail call noundef i64 @_ZN11SymbolTable25estimate_size_for_archiveEv() #19
  %3 = tail call noundef i64 @_ZN22SystemDictionaryShared25estimate_size_for_archiveEv() #19
  %4 = add i64 %3, %2
  %5 = getelementptr inbounds i8, ptr %0, i64 1072
  store i64 %4, ptr %5, align 8
  %6 = getelementptr inbounds i8, ptr %0, i64 1064
  %7 = load i64, ptr %6, align 8
  %8 = add i64 %7, %4
  %9 = tail call noundef i64 @_ZN15MetaspaceShared21core_region_alignmentEv() #19
  %10 = shl i64 %9, 1
  %11 = add i64 %8, %10
  %12 = load volatile ptr, ptr getelementptr inbounds (i8, ptr @_ZN16LogTagSetMappingILN6LogTag4typeE14ELS1_0ELS1_0ELS1_0ELS1_0ELS1_0EE7_tagsetE, i64 64), align 8
  %.not = icmp eq ptr %12, null
  br i1 %.not, label %15, label %13

13:                                               ; preds = %1
  %14 = load i64, ptr %5, align 8
  tail call void (ptr, ...) @_ZN7LogImplILN6LogTag4typeE14ELS1_0ELS1_0ELS1_0ELS1_0ELS1_0EE5writeILN8LogLevel4typeE3EEEvPKcz(ptr noundef nonnull @.str.8, i64 noundef %2, i64 noundef %3, i64 noundef %14)
  br label %15

15:                                               ; preds = %1, %13
  %16 = load volatile ptr, ptr getelementptr inbounds (i8, ptr @_ZN16LogTagSetMappingILN6LogTag4typeE14ELS1_0ELS1_0ELS1_0ELS1_0ELS1_0EE7_tagsetE, i64 64), align 8
  %.not9 = icmp eq ptr %16, null
  br i1 %.not9, label %19, label %17

17:                                               ; preds = %15
  %18 = load i64, ptr %6, align 8
  tail call void (ptr, ...) @_ZN7LogImplILN6LogTag4typeE14ELS1_0ELS1_0ELS1_0ELS1_0ELS1_0EE5writeILN8LogLevel4typeE3EEEvPKcz(ptr noundef nonnull @.str.9, i64 noundef %18)
  br label %19

19:                                               ; preds = %15, %17
  %20 = load volatile ptr, ptr getelementptr inbounds (i8, ptr @_ZN16LogTagSetMappingILN6LogTag4typeE14ELS1_0ELS1_0ELS1_0ELS1_0ELS1_0EE7_tagsetE, i64 64), align 8
  %.not10 = icmp eq ptr %20, null
  br i1 %.not10, label %22, label %21

21:                                               ; preds = %19
  tail call void (ptr, ...) @_ZN7LogImplILN6LogTag4typeE14ELS1_0ELS1_0ELS1_0ELS1_0ELS1_0EE5writeILN8LogLevel4typeE3EEEvPKcz(ptr noundef nonnull @.str.10, i64 noundef %11)
  br label %22

22:                                               ; preds = %19, %21
  %23 = tail call noundef i64 @_ZN15MetaspaceShared21core_region_alignmentEv() #19
  %24 = add i64 %11, -1
  %25 = add i64 %24, %23
  %26 = sub i64 0, %23
  %27 = and i64 %25, %26
  ret i64 %27
}